; Function Attrs: mustprogress uwtable
define internal noundef nonnull ptr @_ZN7testing8internal15TestMetaFactoryIN11opencv_test48feature2d_detectAndExtract_detectAndExtract_TestEE17CreateTestFactoryESt5tupleIJNS2_12_GLOBAL__N_113Feature2DTypeENSt7__cxx1112basic_stringIcSt11char_traitsIcESaIcEEEEE(ptr nocapture nonnull readnone align 8 %0, ptr noundef %1) unnamed_addr #3 align 2 personality ptr @__gxx_personality_v0 {
  %3 = alloca %"class.std::tuple", align 8
  %4 = tail call noalias noundef nonnull dereferenceable(48) ptr @_Znwm(i64 noundef 48) #27
  invoke void @_ZNSt7__cxx1112basic_stringIcSt11char_traitsIcESaIcEEC1ERKS4_(ptr noundef nonnull align 8 dereferenceable(32) %3, ptr noundef nonnull align 8 dereferenceable(32) %1)
          to label %5 unwind label %13

5:                                                ; preds = %2
  %6 = getelementptr inbounds i8, ptr %3, i64 32
  %7 = getelementptr inbounds i8, ptr %1, i64 32
  %8 = load i32, ptr %7, align 8
  store i32 %8, ptr %6, align 8
  store ptr getelementptr inbounds inrange(-16, 24) (i8, ptr @_ZTVN7testing12_GLOBAL__N_124ParameterizedTestFactoryIN11opencv_test48feature2d_detectAndExtract_detectAndExtract_TestEEE, i64 16), ptr %4, align 8
  %9 = getelementptr inbounds i8, ptr %4, i64 8
  invoke void @_ZNSt7__cxx1112basic_stringIcSt11char_traitsIcESaIcEEC1ERKS4_(ptr noundef nonnull align 8 dereferenceable(32) %9, ptr noundef nonnull align 8 dereferenceable(32) %3)
          to label %10 unwind label %15

10:                                               ; preds = %5
  %11 = getelementptr inbounds i8, ptr %4, i64 40
  %12 = load i32, ptr %6, align 8
  store i32 %12, ptr %11, align 8
  call void @_ZNSt7__cxx1112basic_stringIcSt11char_traitsIcESaIcEED1Ev(ptr noundef nonnull align 8 dereferenceable(32) %3) #26
  ret ptr %4

13:                                               ; preds = %2
  %14 = landingpad { ptr, i32 }
          cleanup
  br label %17

15:                                               ; preds = %5
  %16 = landingpad { ptr, i32 }
          cleanup
  call void @_ZNSt7__cxx1112basic_stringIcSt11char_traitsIcESaIcEED1Ev(ptr noundef nonnull align 8 dereferenceable(32) %3) #26
  br label %17

17:                                               ; preds = %13, %15
  %.pn = phi { ptr, i32 } [ %16, %15 ], [ %14, %13 ]
  call void @_ZdlPv(ptr noundef nonnull %4) #29
  resume { ptr, i32 } %.pn
}